; Function Attrs: mustprogress nounwind uwtable
define hidden noundef ptr @_ZN6hermes5irgen11ESTreeIRGen8emitLoadEPNS_5ValueEb(ptr noundef nonnull align 8 dereferenceable(200) %this, ptr noundef %from, i1 noundef zeroext %inhibitThrow) local_unnamed_addr #0 align 2 {
entry:
  %0 = load i8, ptr %from, align 8
  %cmp.i.i.i.i.i.i.i.not = icmp eq i8 %0, 124
  br i1 %cmp.i.i.i.i.i.i.i.not, label %if.then, label %if.else

if.then:                                          ; preds = %entry
  %Builder = getelementptr inbounds i8, ptr %this, i64 8
  %currentIRScope_ = getelementptr inbounds i8, ptr %this, i64 168
  %1 = load ptr, ptr %currentIRScope_, align 8
  %call2 = tail call noundef ptr @_ZN6hermes9IRBuilder19createLoadFrameInstEPNS_8VariableEPNS_17ScopeCreationInstE(ptr noundef nonnull align 8 dereferenceable(40) %Builder, ptr noundef nonnull %from, ptr noundef %1) #15
  %declKind.i = getelementptr inbounds i8, ptr %from, i64 40
  %2 = load i8, ptr %declKind.i, align 8
  %cmp.i.not = icmp eq i8 %2, 2
  br i1 %cmp.i.not, label %return, label %if.then4

if.then4:                                         ; preds = %if.then
  %3 = icmp eq ptr %call2, null
  %add.ptr = getelementptr inbounds i8, ptr %call2, i64 16
  %spec.select = select i1 %3, ptr null, ptr %add.ptr
  %call6 = tail call noundef ptr @_ZN6hermes9IRBuilder22createThrowIfEmptyInstEPNS_5ValueE(ptr noundef nonnull align 8 dereferenceable(40) %Builder, ptr noundef %spec.select) #15
  br label %return

if.else:                                          ; preds = %entry
  %cmp.i.i.i.i.i.i.i6 = icmp eq i8 %0, 123
  tail call void @llvm.assume(i1 %cmp.i.i.i.i.i.i.i6)
  %Builder10 = getelementptr inbounds i8, ptr %this, i64 8
  %declared_.i.i = getelementptr inbounds i8, ptr %from, i64 56
  %4 = load i8, ptr %declared_.i.i, align 8
  %5 = and i8 %4, 1
  %tobool.i.i = icmp ne i8 %5, 0
  %brmerge.i = or i1 %tobool.i.i, %inhibitThrow
  br i1 %brmerge.i, label %if.then.i, label %if.end.i

if.then.i:                                        ; preds = %if.else
  %call1.i = tail call noundef ptr @_ZN6hermes9IRBuilder15getGlobalObjectEv(ptr noundef nonnull align 8 dereferenceable(40) %Builder10) #15
  %name_.i.i = getelementptr inbounds i8, ptr %from, i64 48
  %6 = load ptr, ptr %name_.i.i, align 8
  %call3.i = tail call noundef ptr @_ZN6hermes9IRBuilder22createLoadPropertyInstEPNS_5ValueES2_(ptr noundef nonnull align 8 dereferenceable(40) %Builder10, ptr noundef %call1.i, ptr noundef %6) #15
  br label %return

if.end.i:                                         ; preds = %if.else
  %call4.i = tail call noundef ptr @_ZN6hermes9IRBuilder31createTryLoadGlobalPropertyInstEPNS_20GlobalObjectPropertyE(ptr noundef nonnull align 8 dereferenceable(40) %Builder10, ptr noundef nonnull %from) #15
  br label %return

return:                                           ; preds = %if.end.i, %if.then.i, %if.then, %if.then4
  %retval.0 = phi ptr [ %call6, %if.then4 ], [ %call2, %if.then ], [ %call3.i, %if.then.i ], [ %call4.i, %if.end.i ]
  ret ptr %retval.0
}